; Function Attrs: mustprogress uwtable
define void @_ZN6LibRaw6derrorEv(ptr noundef nonnull align 8 captures(none) dereferenceable(767680) %0) local_unnamed_addr #4 align 2 {
  %2 = getelementptr inbounds nuw i8, ptr %0, i64 381416
  %3 = getelementptr inbounds nuw i8, ptr %0, i64 381684
  %4 = load i32, ptr %3, align 4, !tbaa !41
  %.not = icmp eq i32 %4, 0
  br i1 %.not, label %5, label %40

5:                                                ; preds = %1
  %6 = load ptr, ptr %2, align 8, !tbaa !98
  %.not3 = icmp eq ptr %6, null
  br i1 %.not3, label %40, label %7

7:                                                ; preds = %5
  %8 = load ptr, ptr %6, align 8, !tbaa !99
  %9 = getelementptr inbounds nuw i8, ptr %8, i64 80
  %10 = load ptr, ptr %9, align 8
  %11 = tail call noundef i32 %10(ptr noundef nonnull align 8 dereferenceable(8) %6)
  %.not4 = icmp eq i32 %11, 0
  %12 = getelementptr inbounds nuw i8, ptr %0, i64 767432
  %13 = load ptr, ptr %12, align 8, !tbaa !101
  %.not5 = icmp eq ptr %13, null
  br i1 %.not4, label %25, label %14

14:                                               ; preds = %7
  br i1 %.not5, label %23, label %15

15:                                               ; preds = %14
  %16 = getelementptr inbounds nuw i8, ptr %0, i64 767440
  %17 = load ptr, ptr %16, align 8, !tbaa !102
  %18 = load ptr, ptr %2, align 8, !tbaa !98
  %19 = load ptr, ptr %18, align 8, !tbaa !99
  %20 = getelementptr inbounds nuw i8, ptr %19, i64 120
  %21 = load ptr, ptr %20, align 8
  %22 = tail call noundef ptr %21(ptr noundef nonnull align 8 dereferenceable(8) %18)
  tail call void %13(ptr noundef %17, ptr noundef %22, i32 noundef -1)
  br label %23

23:                                               ; preds = %15, %14
  %24 = tail call ptr @__cxa_allocate_exception(i64 4) #30
  store i32 4, ptr %24, align 16, !tbaa !20
  tail call void @__cxa_throw(ptr nonnull %24, ptr nonnull @_ZTI17LibRaw_exceptions, ptr null) #31
  unreachable

25:                                               ; preds = %7
  br i1 %.not5, label %40, label %26

26:                                               ; preds = %25
  %27 = getelementptr inbounds nuw i8, ptr %0, i64 767440
  %28 = load ptr, ptr %27, align 8, !tbaa !102
  %29 = load ptr, ptr %2, align 8, !tbaa !98
  %30 = load ptr, ptr %29, align 8, !tbaa !99
  %31 = getelementptr inbounds nuw i8, ptr %30, i64 120
  %32 = load ptr, ptr %31, align 8
  %33 = tail call noundef ptr %32(ptr noundef nonnull align 8 dereferenceable(8) %29)
  %34 = load ptr, ptr %2, align 8, !tbaa !98
  %35 = load ptr, ptr %34, align 8, !tbaa !99
  %36 = getelementptr inbounds nuw i8, ptr %35, i64 40
  %37 = load ptr, ptr %36, align 8
  %38 = tail call noundef i64 %37(ptr noundef nonnull align 8 dereferenceable(8) %34)
  %39 = trunc i64 %38 to i32
  tail call void %13(ptr noundef %28, ptr noundef %33, i32 noundef %39)
  br label %40

40:                                               ; preds = %26, %25, %5, %1
  %41 = load i32, ptr %3, align 4, !tbaa !41
  %42 = add i32 %41, 1
  store i32 %42, ptr %3, align 4, !tbaa !41
  ret void
}